; Function Attrs: nofree nounwind uwtable
define void @Sle_ManPrintCut(ptr noundef readonly captures(none) %0) local_unnamed_addr #5 {
  %.val = load i32, ptr %0, align 4, !tbaa !29
  %2 = and i32 %.val, 15
  %3 = getelementptr inbounds nuw i8, ptr %0, i64 4
  %putchar = tail call i32 @putchar(i32 123)
  %.not = icmp eq i32 %2, 0
  br i1 %.not, label %._crit_edge, label %.lr.ph.preheader

.lr.ph.preheader:                                 ; preds = %1
  %wide.trip.count = zext nneg i32 %2 to i64
  br label %.lr.ph

.lr.ph:                                           ; preds = %.lr.ph.preheader, %.lr.ph
  %indvars.iv = phi i64 [ 0, %.lr.ph.preheader ], [ %indvars.iv.next, %.lr.ph ]
  %4 = getelementptr inbounds nuw i32, ptr %3, i64 %indvars.iv
  %5 = load i32, ptr %4, align 4, !tbaa !29
  %6 = tail call i32 (ptr, ...) @printf(ptr noundef nonnull dereferenceable(1) @.str.2, i32 noundef %5)
  %indvars.iv.next = add nuw nsw i64 %indvars.iv, 1
  %exitcond.not = icmp eq i64 %indvars.iv.next, %wide.trip.count
  br i1 %exitcond.not, label %._crit_edge, label %.lr.ph, !llvm.loop !52

._crit_edge:                                      ; preds = %.lr.ph, %1
  %puts = tail call i32 @puts(ptr nonnull dereferenceable(1) @str.1)
  ret void
}